; Function Attrs: mustprogress uwtable
define noundef ptr @_ZN11OpenImageIO6v3_1_032openexrcore_input_imageio_createEv() local_unnamed_addr #5 personality ptr @__gxx_personality_v0 {
  %1 = tail call noundef ptr @_ZN11OpenImageIO6v3_1_010ImageInputnwEm(i64 noundef 280)
  invoke void @_ZN11OpenImageIO6v3_1_010ImageInputC2Ev(ptr noundef nonnull align 8 dereferenceable(280) %1)
          to label %2 unwind label %8

2:                                                ; preds = %0
  store ptr getelementptr inbounds nuw inrange(-16, 272) (i8, ptr @_ZTVN11OpenImageIO6v3_1_016OpenEXRCoreInputE, i64 16), ptr %1, align 8, !tbaa !3
  %3 = getelementptr inbounds nuw i8, ptr %1, i64 184
  tail call void @llvm.memset.p0.i64(ptr noundef nonnull align 8 dereferenceable(24) %3, i8 0, i64 24, i1 false)
  %4 = getelementptr inbounds nuw i8, ptr %1, i64 216
  %5 = getelementptr inbounds nuw i8, ptr %1, i64 224
  %6 = getelementptr inbounds nuw i8, ptr %1, i64 256
  tail call void @llvm.memset.p0.i64(ptr noundef nonnull align 8 dereferenceable(24) %6, i8 0, i64 24, i1 false)
  store i64 0, ptr %4, align 8
  store ptr %1, ptr %5, align 8, !tbaa !6
  %7 = getelementptr inbounds nuw i8, ptr %1, i64 232
  tail call void @llvm.memset.p0.i64(ptr noundef nonnull align 8 dereferenceable(16) %7, i8 0, i64 16, i1 false)
  ret ptr %1

8:                                                ; preds = %0
  %9 = landingpad { ptr, i32 }
          cleanup
  tail call void @_ZN11OpenImageIO6v3_1_010ImageInputdlEPv(ptr noundef nonnull %1) #27
  resume { ptr, i32 } %9
}